target datalayout = "e-m:e-p270:32:32-p271:32:32-p272:64:64-i64:64-i128:128-f80:128-n8:16:32:64-S128"
target triple = "x86_64-pc-linux-gnu"

%struct.HeapTupleData = type { i32, %struct.ItemPointerData, i32, ptr }
%struct.ItemPointerData = type { %struct.BlockIdData, i16 }
%struct.BlockIdData = type { i16, i16 }
%struct.HeapTupleHeaderData = type { %union.anon.1, %struct.ItemPointerData, i16, i16, i8, [0 x i8] }
%union.anon.1 = type { %struct.HeapTupleFields }
%struct.HeapTupleFields = type { i32, i32, %union.anon.2 }
%union.anon.2 = type { i32 }

@.str.1 = private unnamed_addr constant [9 x i8] c"heapam.c\00", align 1
@.str.18 = private unnamed_addr constant [39 x i8] c"attempted to overwrite invisible tuple\00", align 1
@__func__.heap_inplace_lock = private unnamed_addr constant [18 x i8] c"heap_inplace_lock\00", align 1
@.str.19 = private unnamed_addr constant [90 x i8] c"tuple to be updated was already modified by an operation triggered by the current command\00", align 1

; Function Attrs: inlinehint nounwind uwtable
define internal zeroext i1 @HEAP_XMAX_IS_KEYSHR_LOCKED(i16 noundef signext %0) #3 {
  %2 = alloca i16, align 2
  store i16 %0, ptr %2, align 2
  %3 = load i16, ptr %2, align 2
  %4 = sext i16 %3 to i32
  %5 = and i32 %4, 80
  %6 = icmp eq i32 %5, 16
  ret i1 %6
}

; Function Attrs: nounwind uwtable
define internal void @MultiXactIdWait(i32 noundef %0, i32 noundef %1, i16 noundef zeroext %2, ptr noundef %3, ptr noundef %4, i32 noundef %5, ptr noundef %6) #0 {
  %8 = alloca i32, align 4
  %9 = alloca i32, align 4
  %10 = alloca i16, align 2
  %11 = alloca ptr, align 8
  %12 = alloca ptr, align 8
  %13 = alloca i32, align 4
  %14 = alloca ptr, align 8
  store i32 %0, ptr %8, align 4
  store i32 %1, ptr %9, align 4
  store i16 %2, ptr %10, align 2
  store ptr %3, ptr %11, align 8
  store ptr %4, ptr %12, align 8
  store i32 %5, ptr %13, align 4
  store ptr %6, ptr %14, align 8
  %15 = load i32, ptr %8, align 4
  %16 = load i32, ptr %9, align 4
  %17 = load i16, ptr %10, align 2
  %18 = load ptr, ptr %11, align 8
  %19 = load ptr, ptr %12, align 8
  %20 = load i32, ptr %13, align 4
  %21 = load ptr, ptr %14, align 8
  %22 = call zeroext i1 @Do_MultiXactIdWait(i32 noundef %15, i32 noundef %16, i16 noundef zeroext %17, i1 noundef zeroext false, ptr noundef %18, ptr noundef %19, i32 noundef %20, ptr noundef %21)
  ret void
}

; Function Attrs: inlinehint nounwind uwtable
define internal i32 @HeapTupleHeaderGetRawXmax(ptr noundef %0) #3 {
  %2 = alloca ptr, align 8
  store ptr %0, ptr %2, align 8
  %3 = load ptr, ptr %2, align 8
  %4 = getelementptr inbounds nuw %struct.HeapTupleHeaderData, ptr %3, i32 0, i32 0
  %5 = getelementptr inbounds nuw %struct.HeapTupleFields, ptr %4, i32 0, i32 1
  %6 = load i32, ptr %5, align 4
  ret i32 %6
}

; Function Attrs: nounwind uwtable
define dso_local zeroext i1 @heap_inplace_lock(ptr noundef %0, ptr noundef %1, i32 noundef %2, ptr noundef %3, ptr noundef %4) #0 {
  %6 = alloca ptr, align 8
  %7 = alloca ptr, align 8
  %8 = alloca i32, align 4
  %9 = alloca ptr, align 8
  %10 = alloca ptr, align 8
  %11 = alloca %struct.HeapTupleData, align 8
  %12 = alloca i32, align 4
  %13 = alloca i8, align 1
  %14 = alloca i32, align 4
  %15 = alloca i16, align 2
  %16 = alloca i32, align 4
  %17 = alloca i32, align 4
  %18 = alloca i32, align 4
  store ptr %0, ptr %6, align 8
  store ptr %1, ptr %7, align 8
  store i32 %2, ptr %8, align 4
  store ptr %3, ptr %9, align 8
  store ptr %4, ptr %10, align 8
  call void @llvm.lifetime.start.p0(i64 24, ptr %11) #10
  %19 = load ptr, ptr %7, align 8
  call void @llvm.memcpy.p0.p0.i64(ptr align 8 %11, ptr align 8 %19, i64 24, i1 false)
  call void @llvm.lifetime.start.p0(i64 4, ptr %12) #10
  call void @llvm.lifetime.start.p0(i64 1, ptr %13) #10
  %20 = load ptr, ptr %6, align 8
  %21 = load ptr, ptr %7, align 8
  call void @CacheInvalidateHeapTupleInplace(ptr noundef %20, ptr noundef %21, ptr noundef null)
  %22 = load ptr, ptr %6, align 8
  %23 = getelementptr inbounds nuw %struct.HeapTupleData, ptr %11, i32 0, i32 1
  call void @LockTuple(ptr noundef %22, ptr noundef %23, i32 noundef 7)
  %24 = load i32, ptr %8, align 4
  call void @LockBuffer(i32 noundef %24, i32 noundef 2)
  %25 = call i32 @GetCurrentCommandId(i1 noundef zeroext false)
  %26 = load i32, ptr %8, align 4
  %27 = call i32 @HeapTupleSatisfiesUpdate(ptr noundef %11, i32 noundef %25, i32 noundef %26)
  store i32 %27, ptr %12, align 4
  %28 = load i32, ptr %12, align 4
  %29 = icmp eq i32 %28, 1
  br i1 %29, label %30, label %42

30:                                               ; preds = %5
  br label %31

31:                                               ; preds = %30
  br i1 true, label %32, label %34

32:                                               ; preds = %31
  %33 = call zeroext i1 @errstart_cold(i32 noundef 21, ptr noundef null) #11
  br i1 %33, label %36, label %39

34:                                               ; preds = %31
  %35 = call zeroext i1 @errstart(i32 noundef 21, ptr noundef null)
  br i1 %35, label %36, label %39

36:                                               ; preds = %34, %32
  %37 = call i32 @errcode(i32 noundef 325)
  %38 = call i32 (ptr, ...) @errmsg_internal(ptr noundef @.str.18)
  call void @errfinish(ptr noundef @.str.1, i32 noundef 6316, ptr noundef @__func__.heap_inplace_lock)
  br label %39

39:                                               ; preds = %36, %34, %32
  unreachable

40:                                               ; No predecessors!
  br label %41

41:                                               ; preds = %40
  br label %119

42:                                               ; preds = %5
  %43 = load i32, ptr %12, align 4
  %44 = icmp eq i32 %43, 2
  br i1 %44, label %45, label %57

45:                                               ; preds = %42
  br label %46

46:                                               ; preds = %45
  br i1 true, label %47, label %49

47:                                               ; preds = %46
  %48 = call zeroext i1 @errstart_cold(i32 noundef 21, ptr noundef null) #11
  br i1 %48, label %51, label %54

49:                                               ; preds = %46
  %50 = call zeroext i1 @errstart(i32 noundef 21, ptr noundef null)
  br i1 %50, label %51, label %54

51:                                               ; preds = %49, %47
  %52 = call i32 @errcode(i32 noundef 325)
  %53 = call i32 (ptr, ...) @errmsg(ptr noundef @.str.19)
  call void @errfinish(ptr noundef @.str.1, i32 noundef 6328, ptr noundef @__func__.heap_inplace_lock)
  br label %54

54:                                               ; preds = %51, %49, %47
  unreachable

55:                                               ; No predecessors!
  br label %56

56:                                               ; preds = %55
  br label %118

57:                                               ; preds = %42
  %58 = load i32, ptr %12, align 4
  %59 = icmp eq i32 %58, 5
  br i1 %59, label %60, label %106

60:                                               ; preds = %57
  call void @llvm.lifetime.start.p0(i64 4, ptr %14) #10
  call void @llvm.lifetime.start.p0(i64 2, ptr %15) #10
  %61 = getelementptr inbounds nuw %struct.HeapTupleData, ptr %11, i32 0, i32 3
  %62 = load ptr, ptr %61, align 8
  %63 = call i32 @HeapTupleHeaderGetRawXmax(ptr noundef %62)
  store i32 %63, ptr %14, align 4
  %64 = getelementptr inbounds nuw %struct.HeapTupleData, ptr %11, i32 0, i32 3
  %65 = load ptr, ptr %64, align 8
  %66 = getelementptr inbounds nuw %struct.HeapTupleHeaderData, ptr %65, i32 0, i32 3
  %67 = load i16, ptr %66, align 4
  store i16 %67, ptr %15, align 2
  %68 = load i16, ptr %15, align 2
  %69 = zext i16 %68 to i32
  %70 = and i32 %69, 4096
  %71 = icmp ne i32 %70, 0
  br i1 %71, label %72, label %88

72:                                               ; preds = %60
  call void @llvm.lifetime.start.p0(i64 4, ptr %16) #10
  store i32 2, ptr %16, align 4
  call void @llvm.lifetime.start.p0(i64 4, ptr %17) #10
  store i32 4, ptr %17, align 4
  call void @llvm.lifetime.start.p0(i64 4, ptr %18) #10
  %73 = load i32, ptr %14, align 4
  %74 = load i16, ptr %15, align 2
  %75 = load i32, ptr %16, align 4
  %76 = call zeroext i1 @DoesMultiXactIdConflict(i32 noundef %73, i16 noundef zeroext %74, i32 noundef %75, ptr noundef null)
  br i1 %76, label %77, label %86

77:                                               ; preds = %72
  %78 = load i32, ptr %8, align 4
  call void @LockBuffer(i32 noundef %78, i32 noundef 0)
  %79 = load ptr, ptr %9, align 8
  %80 = load ptr, ptr %10, align 8
  call void %79(ptr noundef %80)
  store i8 0, ptr %13, align 1
  %81 = load i32, ptr %14, align 4
  %82 = load i32, ptr %17, align 4
  %83 = load i16, ptr %15, align 2
  %84 = load ptr, ptr %6, align 8
  %85 = getelementptr inbounds nuw %struct.HeapTupleData, ptr %11, i32 0, i32 1
  call void @MultiXactIdWait(i32 noundef %81, i32 noundef %82, i16 noundef zeroext %83, ptr noundef %84, ptr noundef %85, i32 noundef 1, ptr noundef %18)
  br label %87

86:                                               ; preds = %72
  store i8 1, ptr %13, align 1
  br label %87

87:                                               ; preds = %86, %77
  call void @llvm.lifetime.end.p0(i64 4, ptr %18) #10
  call void @llvm.lifetime.end.p0(i64 4, ptr %17) #10
  call void @llvm.lifetime.end.p0(i64 4, ptr %16) #10
  br label %105

88:                                               ; preds = %60
  %89 = load i32, ptr %14, align 4
  %90 = call zeroext i1 @TransactionIdIsCurrentTransactionId(i32 noundef %89)
  br i1 %90, label %91, label %92

91:                                               ; preds = %88
  store i8 1, ptr %13, align 1
  br label %104

92:                                               ; preds = %88
  %93 = load i16, ptr %15, align 2
  %94 = call zeroext i1 @HEAP_XMAX_IS_KEYSHR_LOCKED(i16 noundef signext %93)
  br i1 %94, label %95, label %96

95:                                               ; preds = %92
  store i8 1, ptr %13, align 1
  br label %103

96:                                               ; preds = %92
  %97 = load i32, ptr %8, align 4
  call void @LockBuffer(i32 noundef %97, i32 noundef 0)
  %98 = load ptr, ptr %9, align 8
  %99 = load ptr, ptr %10, align 8
  call void %98(ptr noundef %99)
  store i8 0, ptr %13, align 1
  %100 = load i32, ptr %14, align 4
  %101 = load ptr, ptr %6, align 8
  %102 = getelementptr inbounds nuw %struct.HeapTupleData, ptr %11, i32 0, i32 1
  call void @XactLockTableWait(i32 noundef %100, ptr noundef %101, ptr noundef %102, i32 noundef 1)
  br label %103

103:                                              ; preds = %96, %95
  br label %104

104:                                              ; preds = %103, %91
  br label %105

105:                                              ; preds = %104, %87
  call void @llvm.lifetime.end.p0(i64 2, ptr %15) #10
  call void @llvm.lifetime.end.p0(i64 4, ptr %14) #10
  br label %117

106:                                              ; preds = %57
  %107 = load i32, ptr %12, align 4
  %108 = icmp eq i32 %107, 0
  %109 = zext i1 %108 to i8
  store i8 %109, ptr %13, align 1
  %110 = load i8, ptr %13, align 1, !range !4, !noundef !5
  %111 = trunc i8 %110 to i1
  br i1 %111, label %116, label %112

112:                                              ; preds = %106
  %113 = load i32, ptr %8, align 4
  call void @LockBuffer(i32 noundef %113, i32 noundef 0)
  %114 = load ptr, ptr %9, align 8
  %115 = load ptr, ptr %10, align 8
  call void %114(ptr noundef %115)
  br label %116

116:                                              ; preds = %112, %106
  br label %117

117:                                              ; preds = %116, %105
  br label %118

118:                                              ; preds = %117, %56
  br label %119

119:                                              ; preds = %118, %41
  %120 = load i8, ptr %13, align 1, !range !4, !noundef !5
  %121 = trunc i8 %120 to i1
  br i1 %121, label %125, label %122

122:                                              ; preds = %119
  %123 = load ptr, ptr %6, align 8
  %124 = getelementptr inbounds nuw %struct.HeapTupleData, ptr %11, i32 0, i32 1
  call void @UnlockTuple(ptr noundef %123, ptr noundef %124, i32 noundef 7)
  call void @ForgetInplace_Inval()
  call void @InvalidateCatalogSnapshot()
  br label %125

125:                                              ; preds = %122, %119
  %126 = load i8, ptr %13, align 1, !range !4, !noundef !5
  %127 = trunc i8 %126 to i1
  call void @llvm.lifetime.end.p0(i64 1, ptr %13) #10
  call void @llvm.lifetime.end.p0(i64 4, ptr %12) #10
  call void @llvm.lifetime.end.p0(i64 24, ptr %11) #10
  ret i1 %127
}