; Function Attrs: nounwind uwtable
define dso_local noundef zeroext i1 @heap_inplace_lock(ptr noundef %0, ptr noundef %1, i32 noundef %2, ptr noundef readonly captures(none) %3, ptr noundef %4) local_unnamed_addr #2 {
  %6 = alloca %struct.HeapTupleData, align 8
  %7 = alloca i32, align 4
  call void @llvm.lifetime.start.p0(i64 24, ptr nonnull %6) #13
  call void @llvm.memcpy.p0.p0.i64(ptr noundef nonnull align 8 dereferenceable(24) %6, ptr noundef nonnull align 8 dereferenceable(24) %1, i64 24, i1 false)
  tail call void @CacheInvalidateHeapTupleInplace(ptr noundef %0, ptr noundef nonnull %1, ptr noundef null) #13
  %8 = getelementptr inbounds nuw i8, ptr %6, i64 4
  call void @LockTuple(ptr noundef %0, ptr noundef nonnull %8, i32 noundef 7) #13
  call void @LockBuffer(i32 noundef %2, i32 noundef 2) #13
  %9 = call i32 @GetCurrentCommandId(i1 noundef zeroext false) #13
  %10 = call i32 @HeapTupleSatisfiesUpdate(ptr noundef nonnull %6, i32 noundef %9, i32 noundef %2) #13
  switch i32 %10, label %33 [
    i32 1, label %11
    i32 2, label %15
    i32 5, label %19
    i32 0, label %.thread
  ]

11:                                               ; preds = %5
  %12 = call zeroext i1 @errstart_cold(i32 noundef 21, ptr noundef null) #14
  call void @llvm.assume(i1 %12)
  %13 = call i32 @errcode(i32 noundef 325) #13
  %14 = call i32 (ptr, ...) @errmsg_internal(ptr noundef nonnull @.str.18) #13
  call void @errfinish(ptr noundef nonnull @.str.1, i32 noundef 6316, ptr noundef nonnull @__func__.heap_inplace_lock) #13
  unreachable

15:                                               ; preds = %5
  %16 = call zeroext i1 @errstart_cold(i32 noundef 21, ptr noundef null) #14
  call void @llvm.assume(i1 %16)
  %17 = call i32 @errcode(i32 noundef 325) #13
  %18 = call i32 (ptr, ...) @errmsg(ptr noundef nonnull @.str.19) #13
  call void @errfinish(ptr noundef nonnull @.str.1, i32 noundef 6328, ptr noundef nonnull @__func__.heap_inplace_lock) #13
  unreachable

19:                                               ; preds = %5
  %20 = getelementptr inbounds nuw i8, ptr %6, i64 16
  %21 = load ptr, ptr %20, align 8
  %22 = getelementptr i8, ptr %21, i64 4
  %.val = load i32, ptr %22, align 4
  %23 = getelementptr inbounds nuw i8, ptr %21, i64 20
  %24 = load i16, ptr %23, align 4
  %25 = and i16 %24, 4096
  %.not = icmp eq i16 %25, 0
  br i1 %.not, label %28, label %26

26:                                               ; preds = %19
  call void @llvm.lifetime.start.p0(i64 4, ptr nonnull %7) #13
  %27 = call fastcc zeroext i1 @DoesMultiXactIdConflict(i32 noundef %.val, i16 noundef zeroext %24, i32 noundef 2, ptr noundef null)
  br i1 %27, label %34, label %.thread41

.thread41:                                        ; preds = %26
  call void @llvm.lifetime.end.p0(i64 4, ptr nonnull %7) #13
  br label %.thread

28:                                               ; preds = %19
  %29 = call zeroext i1 @TransactionIdIsCurrentTransactionId(i32 noundef %.val) #13
  %30 = and i16 %24, 80
  %31 = icmp eq i16 %30, 16
  %or.cond = or i1 %31, %29
  br i1 %or.cond, label %.thread, label %32

32:                                               ; preds = %28
  call void @LockBuffer(i32 noundef %2, i32 noundef 0) #13
  call void %3(ptr noundef %4) #13
  call void @XactLockTableWait(i32 noundef %.val, ptr noundef %0, ptr noundef nonnull %8, i32 noundef 1) #13
  br label %.thread38

33:                                               ; preds = %5
  call void @LockBuffer(i32 noundef %2, i32 noundef 0) #13
  call void %3(ptr noundef %4) #13
  br label %.thread38

34:                                               ; preds = %26
  call void @LockBuffer(i32 noundef %2, i32 noundef 0) #13
  call void %3(ptr noundef %4) #13
  %35 = call fastcc zeroext i1 @Do_MultiXactIdWait(i32 noundef %.val, i32 noundef 4, i16 noundef zeroext %24, i1 noundef zeroext false, ptr noundef %0, ptr noundef nonnull %8, i32 noundef 1, ptr noundef nonnull %7)
  call void @llvm.lifetime.end.p0(i64 4, ptr nonnull %7) #13
  br label %.thread38

.thread38:                                        ; preds = %32, %33, %34
  call void @UnlockTuple(ptr noundef %0, ptr noundef nonnull %8, i32 noundef 7) #13
  call void @ForgetInplace_Inval() #13
  call void @InvalidateCatalogSnapshot() #13
  br label %.thread

.thread:                                          ; preds = %5, %28, %.thread41, %.thread38
  %.036 = phi i1 [ false, %.thread38 ], [ true, %.thread41 ], [ true, %28 ], [ true, %5 ]
  call void @llvm.lifetime.end.p0(i64 24, ptr nonnull %6) #13
  ret i1 %.036
}